; Function Attrs: nounwind uwtable
define internal i32 @lp_double_complex(ptr noundef readonly captures(none) %0, ptr noundef %1, ptr noundef %2, ptr readnone captures(none) %3) #0 {
  %5 = tail call { double, double } @PyComplex_AsCComplex(ptr noundef %2) #7
  %6 = extractvalue { double, double } %5, 0
  %7 = extractvalue { double, double } %5, 1
  %8 = fcmp oeq double %6, -1.000000e+00
  br i1 %8, label %9, label %14

9:                                                ; preds = %4
  %10 = tail call ptr @PyErr_Occurred() #7
  %.not = icmp eq ptr %10, null
  br i1 %.not, label %14, label %11

11:                                               ; preds = %9
  %12 = getelementptr inbounds nuw i8, ptr %0, i64 24
  %13 = load ptr, ptr %12, align 8, !tbaa !16
  tail call void @PyErr_SetString(ptr noundef %13, ptr noundef nonnull @.str.57) #7
  br label %19

14:                                               ; preds = %9, %4
  %15 = tail call i32 @PyFloat_Pack8(double noundef %6, ptr noundef %1, i32 noundef 1) #7
  %.not5 = icmp eq i32 %15, 0
  br i1 %.not5, label %16, label %19

16:                                               ; preds = %14
  %17 = getelementptr i8, ptr %1, i64 8
  %18 = tail call i32 @PyFloat_Pack8(double noundef %7, ptr noundef %17, i32 noundef 1) #7
  br label %19

19:                                               ; preds = %14, %16, %11
  %.0 = phi i32 [ -1, %11 ], [ %18, %16 ], [ -1, %14 ]
  ret i32 %.0
}